; Function Attrs: null_pointer_is_valid sspstrong uwtable
define internal noundef zeroext i1 @wmem_tree_reset_cb(ptr readnone captures(none) %0, i32 noundef %1, ptr noundef initializes((16, 24)) %2) #0 {
  %4 = getelementptr inbounds nuw i8, ptr %2, i64 16
  store ptr null, ptr %4, align 8
  %5 = icmp eq i32 %1, 1
  br i1 %5, label %6, label %11

6:                                                ; preds = %3
  %7 = load ptr, ptr %2, align 8
  %8 = getelementptr inbounds nuw i8, ptr %2, i64 24
  %9 = load i32, ptr %8, align 8
  tail call void @wmem_unregister_callback(ptr noundef %7, i32 noundef %9)
  %10 = load ptr, ptr %2, align 8
  tail call void @wmem_free(ptr noundef %10, ptr noundef %2)
  br label %11

11:                                               ; preds = %6, %3
  ret i1 true
}